target datalayout = "e-m:e-p270:32:32-p271:32:32-p272:64:64-i64:64-i128:128-f80:128-n8:16:32:64-S128"
target triple = "x86_64-pc-linux-gnu"

%struct.drx_state_key_t = type { i32, i32 }
%struct.nstime_t = type { i64, i32 }
%struct.mac_lte_info = type { i8, i8, i8, i16, i16, i16, i16, i8, i8, i16, i8, i16, i8, i8, i8, i8, i8, i8, i32, i32, i32, i32, i32, i8, %union.anon, i32, i8, i8, i16, [20 x i16], [20 x i16] }
%union.anon = type { %struct.mac_lte_dl_phy_info }
%struct.mac_lte_dl_phy_info = type { i8, i8, i8, i8, i8, i8, i8, i8, i8, i8 }
%struct._packet_info = type { ptr, ptr, i32, i32, %struct.nstime_t, %struct.nstime_t, %struct.nstime_t, i8, ptr, ptr, ptr, ptr, %struct._address, %struct._address, %struct._address, %struct._address, %struct._address, %struct._address, i32, ptr, i8, [3 x i8], %struct.anon, i32, i32, i32, i32, ptr, i8, ptr, ptr, i16, i16, i32, i32, i16, i32, i32, ptr, ptr, ptr, i8, i8, i16, i16, i16, i32, i16, i16, ptr, ptr, ptr, ptr, ptr, i32, i32 }
%struct._address = type { i32, i32, ptr, ptr }
%struct.anon = type { i8, [3 x i8] }
%struct.ue_parameters_t = type { i8, i8, i8, i8, %struct.drx_state_t }
%struct.drx_state_t = type { %struct.drx_config_t, %struct.drx_running_state_t, %struct.drx_running_state_t }
%struct.drx_config_t = type { i8, i32, i32, i32, i32, i32, i32, i32, i8, i32, i32 }
%struct.drx_running_state_t = type { i8, i8, %struct.nstime_t, i64, i16, i16, i64, i64, [8 x i64], [8 x i64], i64 }

@mac_lte_ue_parameters = internal global ptr null, align 8
@mac_lte_drx_frame_result = internal global ptr null, align 8
@get_drx_result_hash_key.key = internal global %struct.drx_state_key_t zeroinitializer, align 4

; Function Attrs: alwaysinline nounwind
define internal ptr @memset.inline(ptr %0, i32 %1, i64 %2) #11 {
  %4 = alloca ptr, align 8
  %5 = alloca i32, align 4
  %6 = alloca i64, align 8
  store ptr %0, ptr %4, align 8
  store i32 %1, ptr %5, align 4
  store i64 %2, ptr %6, align 8
  %7 = load ptr, ptr %4, align 8
  %8 = load i32, ptr %5, align 4
  %9 = load i64, ptr %6, align 8
  %10 = load ptr, ptr %4, align 8
  %11 = call i64 @llvm.objectsize.i64.p0(ptr %10, i1 false, i1 true, i1 true)
  %12 = call ptr @__memset_chk(ptr noundef %7, i32 noundef %8, i64 noundef %9, i64 noundef %11) #16
  ret ptr %12
}

; Function Attrs: null_pointer_is_valid sspstrong uwtable
define internal ptr @get_drx_result_hash_key(i32 noundef %0, i32 noundef %1, i1 noundef zeroext %2) #0 {
  %4 = alloca i32, align 4
  %5 = alloca i32, align 4
  %6 = alloca i8, align 1
  %7 = alloca ptr, align 8
  store i32 %0, ptr %4, align 4
  store i32 %1, ptr %5, align 4
  %8 = zext i1 %2 to i8
  store i8 %8, ptr %6, align 1
  call void @llvm.lifetime.start.p0(i64 8, ptr %7) #16
  %9 = load i8, ptr %6, align 1, !range !9, !noundef !10
  %10 = trunc i8 %9 to i1
  br i1 %10, label %11, label %14

11:                                               ; preds = %3
  %12 = call ptr @wmem_file_scope()
  %13 = call noalias ptr @wmem_alloc0(ptr noundef %12, i64 noundef 8) #17
  store ptr %13, ptr %7, align 8
  br label %16

14:                                               ; preds = %3
  %15 = call ptr @memset.inline(ptr noundef @get_drx_result_hash_key.key, i32 noundef 0, i64 noundef 8) #16
  store ptr @get_drx_result_hash_key.key, ptr %7, align 8
  br label %16

16:                                               ; preds = %14, %11
  %17 = load i32, ptr %4, align 4
  %18 = load ptr, ptr %7, align 8
  %19 = getelementptr inbounds nuw %struct.drx_state_key_t, ptr %18, i32 0, i32 0
  store i32 %17, ptr %19, align 4
  %20 = load i32, ptr %5, align 4
  %21 = load ptr, ptr %7, align 8
  %22 = getelementptr inbounds nuw %struct.drx_state_key_t, ptr %21, i32 0, i32 1
  store i32 %20, ptr %22, align 4
  %23 = load ptr, ptr %7, align 8
  call void @llvm.lifetime.end.p0(i64 8, ptr %7) #16
  ret ptr %23
}

; Function Attrs: null_pointer_is_valid sspstrong uwtable
define internal void @set_drx_info(ptr noundef %0, ptr noundef %1, i1 noundef zeroext %2, i32 noundef %3) #0 {
  %5 = alloca ptr, align 8
  %6 = alloca ptr, align 8
  %7 = alloca i8, align 1
  %8 = alloca i32, align 4
  %9 = alloca ptr, align 8
  %10 = alloca ptr, align 8
  store ptr %0, ptr %5, align 8
  store ptr %1, ptr %6, align 8
  %11 = zext i1 %2 to i8
  store i8 %11, ptr %7, align 1
  store i32 %3, ptr %8, align 4
  call void @llvm.lifetime.start.p0(i64 8, ptr %9) #16
  %12 = load ptr, ptr @mac_lte_ue_parameters, align 8
  %13 = load ptr, ptr %6, align 8
  %14 = getelementptr inbounds nuw %struct.mac_lte_info, ptr %13, i32 0, i32 4
  %15 = load i16, ptr %14, align 2
  %16 = zext i16 %15 to i32
  %17 = zext i32 %16 to i64
  %18 = inttoptr i64 %17 to ptr
  %19 = call ptr @g_hash_table_lookup(ptr noundef %12, ptr noundef %18)
  store ptr %19, ptr %9, align 8
  call void @llvm.lifetime.start.p0(i64 8, ptr %10) #16
  %20 = load ptr, ptr %9, align 8
  %21 = icmp ne ptr %20, null
  br i1 %21, label %22, label %62

22:                                               ; preds = %4
  %23 = load ptr, ptr %9, align 8
  %24 = getelementptr inbounds nuw %struct.ue_parameters_t, ptr %23, i32 0, i32 3
  %25 = load i8, ptr %24, align 1, !range !9, !noundef !10
  %26 = trunc i8 %25 to i1
  br i1 %26, label %27, label %62

27:                                               ; preds = %22
  %28 = load i8, ptr %7, align 1, !range !9, !noundef !10
  %29 = trunc i8 %28 to i1
  br i1 %29, label %30, label %44

30:                                               ; preds = %27
  %31 = call ptr @wmem_file_scope()
  %32 = call noalias ptr @wmem_alloc(ptr noundef %31, i64 noundef 432) #17
  store ptr %32, ptr %10, align 8
  %33 = load ptr, ptr %10, align 8
  %34 = load ptr, ptr %9, align 8
  %35 = getelementptr inbounds nuw %struct.ue_parameters_t, ptr %34, i32 0, i32 4
  call void @llvm.memcpy.p0.p0.i64(ptr align 8 %33, ptr align 8 %35, i64 432, i1 false)
  %36 = load ptr, ptr @mac_lte_drx_frame_result, align 8
  %37 = load ptr, ptr %5, align 8
  %38 = getelementptr inbounds nuw %struct._packet_info, ptr %37, i32 0, i32 3
  %39 = load i32, ptr %38, align 4
  %40 = load i32, ptr %8, align 4
  %41 = call ptr @get_drx_result_hash_key(i32 noundef %39, i32 noundef %40, i1 noundef zeroext true)
  %42 = load ptr, ptr %10, align 8
  %43 = call i32 @g_hash_table_insert(ptr noundef %36, ptr noundef %41, ptr noundef %42)
  br label %61

44:                                               ; preds = %27
  %45 = load ptr, ptr @mac_lte_drx_frame_result, align 8
  %46 = load ptr, ptr %5, align 8
  %47 = getelementptr inbounds nuw %struct._packet_info, ptr %46, i32 0, i32 3
  %48 = load i32, ptr %47, align 4
  %49 = load i32, ptr %8, align 4
  %50 = call ptr @get_drx_result_hash_key(i32 noundef %48, i32 noundef %49, i1 noundef zeroext false)
  %51 = call ptr @g_hash_table_lookup(ptr noundef %45, ptr noundef %50)
  store ptr %51, ptr %10, align 8
  %52 = load ptr, ptr %10, align 8
  %53 = icmp ne ptr %52, null
  br i1 %53, label %54, label %60

54:                                               ; preds = %44
  %55 = load ptr, ptr %10, align 8
  %56 = getelementptr inbounds nuw %struct.drx_state_t, ptr %55, i32 0, i32 2
  %57 = load ptr, ptr %9, align 8
  %58 = getelementptr inbounds nuw %struct.ue_parameters_t, ptr %57, i32 0, i32 4
  %59 = getelementptr inbounds nuw %struct.drx_state_t, ptr %58, i32 0, i32 1
  call void @llvm.memcpy.p0.p0.i64(ptr align 8 %56, ptr align 8 %59, i64 192, i1 false)
  br label %60

60:                                               ; preds = %54, %44
  br label %61

61:                                               ; preds = %60, %30
  br label %62

62:                                               ; preds = %61, %22, %4
  call void @llvm.lifetime.end.p0(i64 8, ptr %10) #16
  call void @llvm.lifetime.end.p0(i64 8, ptr %9) #16
  ret void
}