; Function Attrs: null_pointer_is_valid sspstrong uwtable
define internal fastcc void @set_drx_info(ptr noundef readonly captures(none) %0, i16 %.6.val, i1 noundef zeroext %1, i32 noundef %2) unnamed_addr #0 {
  %4 = load ptr, ptr @mac_lte_ue_parameters, align 8
  %5 = zext i16 %.6.val to i64
  %6 = inttoptr i64 %5 to ptr
  %7 = tail call ptr @g_hash_table_lookup(ptr noundef %4, ptr noundef %6)
  %.not = icmp eq ptr %7, null
  br i1 %.not, label %32, label %8

8:                                                ; preds = %3
  %9 = getelementptr inbounds nuw i8, ptr %7, i64 3
  %10 = load i8, ptr %9, align 1, !range !9, !noundef !10
  %11 = trunc nuw i8 %10 to i1
  br i1 %11, label %12, label %32

12:                                               ; preds = %8
  br i1 %1, label %13, label %24

13:                                               ; preds = %12
  %14 = tail call ptr @wmem_file_scope()
  %15 = tail call noalias dereferenceable_or_null(432) ptr @wmem_alloc(ptr noundef %14, i64 noundef 432) #17
  %16 = getelementptr inbounds nuw i8, ptr %7, i64 8
  tail call void @llvm.memcpy.p0.p0.i64(ptr noundef align 8 dereferenceable(432) %15, ptr noundef nonnull align 8 dereferenceable(432) %16, i64 432, i1 false)
  %17 = load ptr, ptr @mac_lte_drx_frame_result, align 8
  %18 = getelementptr inbounds nuw i8, ptr %0, i64 20
  %19 = load i32, ptr %18, align 4
  %20 = tail call ptr @wmem_file_scope()
  %21 = tail call noalias dereferenceable_or_null(8) ptr @wmem_alloc0(ptr noundef %20, i64 noundef 8) #17
  store i32 %19, ptr %21, align 4
  %22 = getelementptr inbounds nuw i8, ptr %21, i64 4
  store i32 %2, ptr %22, align 4
  %23 = tail call i32 @g_hash_table_insert(ptr noundef %17, ptr noundef %21, ptr noundef %15)
  br label %32

24:                                               ; preds = %12
  %25 = load ptr, ptr @mac_lte_drx_frame_result, align 8
  %26 = getelementptr inbounds nuw i8, ptr %0, i64 20
  %27 = load i32, ptr %26, align 4
  store i32 %27, ptr @get_drx_result_hash_key.key, align 4
  store i32 %2, ptr getelementptr inbounds nuw (i8, ptr @get_drx_result_hash_key.key, i64 4), align 4
  %28 = tail call ptr @g_hash_table_lookup(ptr noundef %25, ptr noundef nonnull @get_drx_result_hash_key.key)
  %.not14 = icmp eq ptr %28, null
  br i1 %.not14, label %32, label %29

29:                                               ; preds = %24
  %30 = getelementptr inbounds nuw i8, ptr %28, i64 240
  %31 = getelementptr inbounds nuw i8, ptr %7, i64 56
  tail call void @llvm.memcpy.p0.p0.i64(ptr noundef nonnull align 8 dereferenceable(192) %30, ptr noundef nonnull align 8 dereferenceable(192) %31, i64 192, i1 false)
  br label %32

32:                                               ; preds = %13, %29, %24, %8, %3
  ret void
}